Certificate:
    Data:
        Version: 3 (0x2)
        Serial Number: 1 (0x1)
        Signature Algorithm: md5WithRSAEncryption
        Issuer: C=ZA, ST=Gauteng, L=Johannesburg, O=MyOrganization, OU=workshop, CN=myorg.co.za/Email=admin@myorg.co.za
        Validity
            Not Before: Aug  3 20:34:21 2003 GMT
            Not After : Aug  2 20:34:21 2004 GMT
        Subject: C=ZA, ST=Gauteng, L=Johannesburg, O=myOtherOrg, OU=SpecialBranch, CN=specialbranch.myOtherOrg.co.za/Email=admin@specialbranch.myOtherOrg.co.za
        Subject Public Key Info:
            Public Key Algorithm: rsaEncryption
            RSA Public Key: (1024 bit)
                Modulus (1024 bit):
                    00:bd:46:b2:11:35:3b:18:ef:e0:1c:fe:de:23:23:
                    58:75:8f:bc:b0:77:3a:37:ff:77:e7:bd:30:a1:9b:
                    f8:d9:2a:2e:a1:e1:a7:a8:ab:df:32:3c:24:76:d7:
                    8d:fc:7e:5c:69:d4:65:7a:87:73:ad:58:08:52:e1:
                    09:c0:84:8d:f6:92:30:9d:0f:cf:b1:5f:31:3c:8a:
                    80:eb:c3:0a:60:d3:b2:44:56:cd:6d:3b:dd:5d:24:
                    d6:31:fb:05:18:a6:26:c2:33:de:ff:17:e3:81:12:
                    9c:c0:cc:60:46:bf:b2:4f:58:e7:bb:3d:c4:b3:96:
                    5a:13:92:dd:76:b7:f3:1a:ab
                Exponent: 65537 (0x10001)
        X509v3 extensions:
            X509v3 Basic Constraints: 
                CA:FALSE
            Netscape Comment: 
                OpenSSL Generated Certificate
            X509v3 Subject Key Identifier: 
                ED:D6:E3:C9:FE:A3:55:D3:5D:17:6C:EA:7A:48:02:62:00:9A:6F:66
            X509v3 Authority Key Identifier: 
                keyid:6B:04:19:C6:76:FF:9B:77:E9:42:0F:34:DA:6A:7E:63:D5:4B:BD:21
                DirName:/C=ZA/ST=Gauteng/L=Johannesburg/O=MyOrganization/OU=workshop/CN=myorg.co.za/Email=admin@myorg.co.za
                serial:00

    Signature Algorithm: md5WithRSAEncryption
        66:a7:da:8d:32:b6:fe:de:4f:e6:24:d1:ba:05:00:52:2c:50:
        77:97:6f:7d:25:97:17:39:dd:aa:ab:ce:d3:62:2f:aa:fd:88:
        46:b7:81:64:05:60:2c:a2:3b:a5:e6:79:25:5e:9b:bc:56:4a:
        5f:f9:15:1a:c6:eb:37:a2:3a:17:bc:c1:0c:61:fd:52:09:9e:
        7f:5b:b0:ae:03:a7:9f:d4:c3:99:69:3e:81:14:87:31:dd:e8:
        c0:0e:13:79:f1:6b:a3:05:41:a8:b8:54:d9:4c:4a:dd:13:4e:
        3f:b6:ba:a2:29:e8:d5:ff:04:c7:26:4f:2b:4a:54:2e:40:9a:
        36:c4
-----BEGIN CERTIFICATE-----
MIID+zCCA2SgAwIBAgIBATANBgkqhkiG9w0BAQQFADCBmjELMAkGA1UEBhMCWkEx
EDAOBgNVBAgTB0dhdXRlbmcxFTATBgNVBAcTDEpvaGFubmVzYnVyZzEXMBUGA1UE
ChMOTXlPcmdhbml6YXRpb24xETAPBgNVBAsTCHdvcmtzaG9wMRQwEgYDVQQDEwtt
eW9yZy5jby56YTEgMB4GCSqGSIb3DQEJARYRYWRtaW5AbXlvcmcuY28uemEwHhcN
MDMwODAzMjAzNDIxWhcNMDQwODAyMjAzNDIxWjCBwTELMAkGA1UEBhMCWkExEDAO
BgNVBAgTB0dhdXRlbmcxFTATBgNVBAcTDEpvaGFubmVzYnVyZzETMBEGA1UEChMK
bXlPdGhlck9yZzEWMBQGA1UECxMNU3BlY2lhbEJyYW5jaDEnMCUGA1UEAxMec3Bl
Y2lhbGJyYW5jaC5teU90aGVyT3JnLmNvLnphMTMwMQYJKoZIhvcNAQkBFiRhZG1p
bkBzcGVjaWFsYnJhbmNoLm15T3RoZXJPcmcuY28uemEwgZ8wDQYJKoZIhvcNAQEB
BQADgY0AMIGJAoGBAL1GshE1Oxjv4Bz+3iMjWHWPvLB3Ojf/d+e9MKGb+NkqLqHh
p6ir3zI8JHbXjfx+XGnUZXqHc61YCFLhCcCEjfaSMJ0Pz7FfMTyKgOvDCmDTskRW
zW073V0k1jH7BRimJsIz3v8X44ESnMDMYEa/sk9Y57s9xLOWWhOS3Xa38xqrAgMB
AAGjggEmMIIBIjAJBgNVHRMEAjAAMCwGCWCGSAGG+EIBDQQfFh1PcGVuU1NMIEdl
bmVyYXRlZCBDZXJ0aWZpY2F0ZTAdBgNVHQ4EFgQU7dbjyf6jVdNdF2zqekgCYgCa
b2YwgccGA1UdIwSBvzCBvIAUawQZxnb/m3fpQg802mp+Y9VLvSGhgaCkgZ0wgZox
CzAJBgNVBAYTAlpBMRAwDgYDVQQIEwdHYXV0ZW5nMRUwEwYDVQQHEwxKb2hhbm5l
c2J1cmcxFzAVBgNVBAoTDk15T3JnYW5pemF0aW9uMREwDwYDVQQLEwh3b3Jrc2hv
cDEUMBIGA1UEAxMLbXlvcmcuY28uemExIDAeBgkqhkiG9w0BCQEWEWFkbWluQG15
b3JnLmNvLnphggEAMA0GCSqGSIb3DQEBBAUAA4GBAGan2o0ytv7eT+Yk0boFAFIs
UHeXb30llxc53aqrztNiL6r9iEa3gWQFYCyiO6XmeSVem7xWSl/5FRrG6zeiOhe8
wQxh/VIJnn9bsK4Dp5/Uw5lpPoEUhzHd6MAOE3nxa6MFQai4VNlMSt0TTj+2uqIp
6NX/BMcmTytKVC5AmjbE
-----END CERTIFICATE-----
